; ModuleID = '2/1276.c'
source_filename = "2/1276.c"
target datalayout = "e-m:e-p270:32:32-p271:32:32-p272:64:64-i64:64-f80:128-n8:16:32:64-S128"
target triple = "x86_64-pc-linux-gnu"

%struct.book = type { i32, [10 x i8] }

@.str = private unnamed_addr constant [3 x i8] c"%d\00", align 1
@.str.1 = private unnamed_addr constant [6 x i8] c"%d %s\00", align 1
@.str.2 = private unnamed_addr constant [7 x i8] c"%c\0A%d\0A\00", align 1
@.str.3 = private unnamed_addr constant [4 x i8] c"%d\0A\00", align 1

; Function Attrs: noinline nounwind uwtable
define dso_local i32 @main() #0 {
  %1 = alloca i32, align 4
  %2 = alloca i32, align 4
  %3 = alloca i32, align 4
  %4 = alloca i32, align 4
  %5 = alloca %struct.book, align 4
  %6 = alloca %struct.book*, align 8
  %7 = alloca [256 x i32], align 16
  %8 = alloca i32, align 4
  %9 = alloca i32, align 4
  %10 = alloca i8, align 1
  store i32 0, i32* %1, align 4
  %11 = call i32 (i8*, ...) @__isoc99_scanf(i8* getelementptr inbounds ([3 x i8], [3 x i8]* @.str, i64 0, i64 0), i32* %4)
  %12 = load i32, i32* %4, align 4
  %13 = sext i32 %12 to i64
  %14 = mul i64 16, %13
  %15 = call noalias i8* @malloc(i64 %14) #4
  %16 = bitcast i8* %15 to %struct.book*
  store %struct.book* %16, %struct.book** %6, align 8
  store i32 0, i32* %2, align 4
  br label %17

17:                                               ; preds = %32, %0
  %18 = load i32, i32* %2, align 4
  %19 = load i32, i32* %4, align 4
  %20 = icmp slt i32 %18, %19
  br i1 %20, label %21, label %35

21:                                               ; preds = %17
  %22 = getelementptr inbounds %struct.book, %struct.book* %5, i32 0, i32 0
  %23 = getelementptr inbounds %struct.book, %struct.book* %5, i32 0, i32 1
  %24 = getelementptr inbounds [10 x i8], [10 x i8]* %23, i64 0, i64 0
  %25 = call i32 (i8*, ...) @__isoc99_scanf(i8* getelementptr inbounds ([6 x i8], [6 x i8]* @.str.1, i64 0, i64 0), i32* %22, i8* %24)
  %26 = load %struct.book*, %struct.book** %6, align 8
  %27 = load i32, i32* %2, align 4
  %28 = sext i32 %27 to i64
  %29 = getelementptr inbounds %struct.book, %struct.book* %26, i64 %28
  %30 = bitcast %struct.book* %29 to i8*
  %31 = bitcast %struct.book* %5 to i8*
  call void @llvm.memcpy.p0i8.p0i8.i64(i8* align 4 %30, i8* align 4 %31, i64 16, i1 false)
  br label %32

32:                                               ; preds = %21
  %33 = load i32, i32* %2, align 4
  %34 = add nsw i32 %33, 1
  store i32 %34, i32* %2, align 4
  br label %17

35:                                               ; preds = %17
  %36 = bitcast [256 x i32]* %7 to i8*
  call void @llvm.memset.p0i8.i64(i8* align 16 %36, i8 0, i64 1024, i1 false)
  store i32 0, i32* %2, align 4
  br label %37

37:                                               ; preds = %69, %35
  %38 = load i32, i32* %2, align 4
  %39 = load i32, i32* %4, align 4
  %40 = icmp slt i32 %38, %39
  br i1 %40, label %41, label %72

41:                                               ; preds = %37
  %42 = load %struct.book*, %struct.book** %6, align 8
  %43 = load i32, i32* %2, align 4
  %44 = sext i32 %43 to i64
  %45 = getelementptr inbounds %struct.book, %struct.book* %42, i64 %44
  %46 = bitcast %struct.book* %5 to i8*
  %47 = bitcast %struct.book* %45 to i8*
  call void @llvm.memcpy.p0i8.p0i8.i64(i8* align 4 %46, i8* align 4 %47, i64 16, i1 false)
  store i32 0, i32* %3, align 4
  br label %48

48:                                               ; preds = %65, %41
  %49 = getelementptr inbounds %struct.book, %struct.book* %5, i32 0, i32 1
  %50 = load i32, i32* %3, align 4
  %51 = sext i32 %50 to i64
  %52 = getelementptr inbounds [10 x i8], [10 x i8]* %49, i64 0, i64 %51
  %53 = load i8, i8* %52, align 1
  %54 = icmp ne i8 %53, 0
  br i1 %54, label %55, label %68

55:                                               ; preds = %48
  %56 = getelementptr inbounds %struct.book, %struct.book* %5, i32 0, i32 1
  %57 = load i32, i32* %3, align 4
  %58 = sext i32 %57 to i64
  %59 = getelementptr inbounds [10 x i8], [10 x i8]* %56, i64 0, i64 %58
  %60 = load i8, i8* %59, align 1
  %61 = sext i8 %60 to i64
  %62 = getelementptr inbounds [256 x i32], [256 x i32]* %7, i64 0, i64 %61
  %63 = load i32, i32* %62, align 4
  %64 = add nsw i32 %63, 1
  store i32 %64, i32* %62, align 4
  br label %65

65:                                               ; preds = %55
  %66 = load i32, i32* %3, align 4
  %67 = add nsw i32 %66, 1
  store i32 %67, i32* %3, align 4
  br label %48

68:                                               ; preds = %48
  br label %69

69:                                               ; preds = %68
  %70 = load i32, i32* %2, align 4
  %71 = add nsw i32 %70, 1
  store i32 %71, i32* %2, align 4
  br label %37

72:                                               ; preds = %37
  store i32 0, i32* %8, align 4
  store i32 1000, i32* %9, align 4
  br label %73

73:                                               ; preds = %147, %72
  %74 = load i32, i32* %9, align 4
  %75 = icmp sgt i32 %74, 0
  br i1 %75, label %76, label %150

76:                                               ; preds = %73
  store i8 65, i8* %10, align 1
  br label %77

77:                                               ; preds = %137, %76
  %78 = load i8, i8* %10, align 1
  %79 = sext i8 %78 to i32
  %80 = icmp sle i32 %79, 90
  br i1 %80, label %81, label %140

81:                                               ; preds = %77
  %82 = load i8, i8* %10, align 1
  %83 = sext i8 %82 to i64
  %84 = getelementptr inbounds [256 x i32], [256 x i32]* %7, i64 0, i64 %83
  %85 = load i32, i32* %84, align 4
  %86 = load i32, i32* %9, align 4
  %87 = icmp eq i32 %85, %86
  br i1 %87, label %88, label %136

88:                                               ; preds = %81
  %89 = load i8, i8* %10, align 1
  %90 = sext i8 %89 to i32
  %91 = load i32, i32* %9, align 4
  %92 = call i32 (i8*, ...) @printf(i8* getelementptr inbounds ([7 x i8], [7 x i8]* @.str.2, i64 0, i64 0), i32 %90, i32 %91)
  store i32 0, i32* %2, align 4
  br label %93

93:                                               ; preds = %130, %88
  %94 = load i32, i32* %2, align 4
  %95 = load i32, i32* %4, align 4
  %96 = icmp slt i32 %94, %95
  br i1 %96, label %97, label %133

97:                                               ; preds = %93
  %98 = load %struct.book*, %struct.book** %6, align 8
  %99 = load i32, i32* %2, align 4
  %100 = sext i32 %99 to i64
  %101 = getelementptr inbounds %struct.book, %struct.book* %98, i64 %100
  %102 = bitcast %struct.book* %5 to i8*
  %103 = bitcast %struct.book* %101 to i8*
  call void @llvm.memcpy.p0i8.p0i8.i64(i8* align 4 %102, i8* align 4 %103, i64 16, i1 false)
  store i32 0, i32* %3, align 4
  br label %104

104:                                              ; preds = %126, %97
  %105 = getelementptr inbounds %struct.book, %struct.book* %5, i32 0, i32 1
  %106 = load i32, i32* %3, align 4
  %107 = sext i32 %106 to i64
  %108 = getelementptr inbounds [10 x i8], [10 x i8]* %105, i64 0, i64 %107
  %109 = load i8, i8* %108, align 1
  %110 = icmp ne i8 %109, 0
  br i1 %110, label %111, label %129

111:                                              ; preds = %104
  %112 = getelementptr inbounds %struct.book, %struct.book* %5, i32 0, i32 1
  %113 = load i32, i32* %3, align 4
  %114 = sext i32 %113 to i64
  %115 = getelementptr inbounds [10 x i8], [10 x i8]* %112, i64 0, i64 %114
  %116 = load i8, i8* %115, align 1
  %117 = sext i8 %116 to i32
  %118 = load i8, i8* %10, align 1
  %119 = sext i8 %118 to i32
  %120 = icmp eq i32 %117, %119
  br i1 %120, label %121, label %125

121:                                              ; preds = %111
  %122 = getelementptr inbounds %struct.book, %struct.book* %5, i32 0, i32 0
  %123 = load i32, i32* %122, align 4
  %124 = call i32 (i8*, ...) @printf(i8* getelementptr inbounds ([4 x i8], [4 x i8]* @.str.3, i64 0, i64 0), i32 %123)
  br label %129

125:                                              ; preds = %111
  br label %126

126:                                              ; preds = %125
  %127 = load i32, i32* %3, align 4
  %128 = add nsw i32 %127, 1
  store i32 %128, i32* %3, align 4
  br label %104

129:                                              ; preds = %121, %104
  br label %130

130:                                              ; preds = %129
  %131 = load i32, i32* %2, align 4
  %132 = add nsw i32 %131, 1
  store i32 %132, i32* %2, align 4
  br label %93

133:                                              ; preds = %93
  %134 = load i32, i32* %8, align 4
  %135 = add nsw i32 %134, 1
  store i32 %135, i32* %8, align 4
  br label %136

136:                                              ; preds = %133, %81
  br label %137

137:                                              ; preds = %136
  %138 = load i8, i8* %10, align 1
  %139 = add i8 %138, 1
  store i8 %139, i8* %10, align 1
  br label %77

140:                                              ; preds = %77
  %141 = load i32, i32* %8, align 4
  %142 = icmp eq i32 %141, 1
  br i1 %142, label %143, label %146

143:                                              ; preds = %140
  %144 = load %struct.book*, %struct.book** %6, align 8
  %145 = bitcast %struct.book* %144 to i8*
  call void @free(i8* %145) #4
  store i32 0, i32* %1, align 4
  br label %153

146:                                              ; preds = %140
  br label %147

147:                                              ; preds = %146
  %148 = load i32, i32* %9, align 4
  %149 = add nsw i32 %148, -1
  store i32 %149, i32* %9, align 4
  br label %73

150:                                              ; preds = %73
  %151 = load %struct.book*, %struct.book** %6, align 8
  %152 = bitcast %struct.book* %151 to i8*
  call void @free(i8* %152) #4
  store i32 -1, i32* %1, align 4
  br label %153

153:                                              ; preds = %150, %143
  %154 = load i32, i32* %1, align 4
  ret i32 %154
}

declare dso_local i32 @__isoc99_scanf(i8*, ...) #1

; Function Attrs: nounwind
declare dso_local noalias i8* @malloc(i64) #2

; Function Attrs: argmemonly nounwind willreturn
declare void @llvm.memcpy.p0i8.p0i8.i64(i8* noalias nocapture writeonly, i8* noalias nocapture readonly, i64, i1 immarg) #3

; Function Attrs: argmemonly nounwind willreturn
declare void @llvm.memset.p0i8.i64(i8* nocapture writeonly, i8, i64, i1 immarg) #3

declare dso_local i32 @printf(i8*, ...) #1

; Function Attrs: nounwind
declare dso_local void @free(i8*) #2


!llvm.module.flags = !{!0}
!llvm.ident = !{!1}

!0 = !{i32 1, !"wchar_size", i32 4}
!1 = !{!"clang version 10.0.0-4ubuntu1 "}
